; Function Attrs: mustprogress nounwind uwtable
define void @_ZN27LBMLBTRMTransportDialogInfoD2Ev(ptr noundef nonnull align 8 dereferenceable(24) %0) unnamed_addr #2 align 2 personality ptr @__gxx_personality_v0 {
  invoke void @_ZN27LBMLBTRMTransportDialogInfo9clearMapsEv(ptr noundef nonnull align 8 dereferenceable(24) %0)
          to label %2 unwind label %31

2:                                                ; preds = %1
  %3 = getelementptr inbounds i8, ptr %0, i64 16
  %4 = load ptr, ptr %3, align 8
  %.not.i.i = icmp eq ptr %4, null
  br i1 %.not.i.i, label %_ZN4QMapI7QStringP21LBMLBTRMReceiverEntryED2Ev.exit, label %5

5:                                                ; preds = %2
  %6 = atomicrmw sub ptr %4, i32 1 seq_cst, align 4
  %.not2.i.i = icmp eq i32 %6, 1
  br i1 %.not2.i.i, label %7, label %_ZN4QMapI7QStringP21LBMLBTRMReceiverEntryED2Ev.exit

7:                                                ; preds = %5
  %8 = load ptr, ptr %3, align 8
  %9 = icmp eq ptr %8, null
  br i1 %9, label %_ZN4QMapI7QStringP21LBMLBTRMReceiverEntryED2Ev.exit, label %10

10:                                               ; preds = %7
  %11 = getelementptr inbounds i8, ptr %8, i64 8
  %12 = getelementptr inbounds i8, ptr %8, i64 24
  %13 = load ptr, ptr %12, align 8
  invoke void @_ZNSt8_Rb_treeI7QStringSt4pairIKS0_P21LBMLBTRMReceiverEntryESt10_Select1stIS5_ESt4lessIS0_ESaIS5_EE8_M_eraseEPSt13_Rb_tree_nodeIS5_E(ptr noundef nonnull align 8 dereferenceable(48) %11, ptr noundef %13)
          to label %_ZN8QMapDataISt3mapI7QStringP21LBMLBTRMReceiverEntrySt4lessIS1_ESaISt4pairIKS1_S3_EEEED2Ev.exit.i.i unwind label %14

14:                                               ; preds = %10
  %15 = landingpad { ptr, i32 }
          catch ptr null
  %16 = extractvalue { ptr, i32 } %15, 0
  tail call void @__clang_call_terminate(ptr %16) #18
  unreachable

_ZN8QMapDataISt3mapI7QStringP21LBMLBTRMReceiverEntrySt4lessIS1_ESaISt4pairIKS1_S3_EEEED2Ev.exit.i.i: ; preds = %10
  tail call void @_ZdlPv(ptr noundef nonnull %8) #19
  br label %_ZN4QMapI7QStringP21LBMLBTRMReceiverEntryED2Ev.exit

_ZN4QMapI7QStringP21LBMLBTRMReceiverEntryED2Ev.exit: ; preds = %2, %5, %7, %_ZN8QMapDataISt3mapI7QStringP21LBMLBTRMReceiverEntrySt4lessIS1_ESaISt4pairIKS1_S3_EEEED2Ev.exit.i.i
  %17 = getelementptr inbounds i8, ptr %0, i64 8
  %18 = load ptr, ptr %17, align 8
  %.not.i.i1 = icmp eq ptr %18, null
  br i1 %.not.i.i1, label %_ZN4QMapI7QStringP19LBMLBTRMSourceEntryED2Ev.exit, label %19

19:                                               ; preds = %_ZN4QMapI7QStringP21LBMLBTRMReceiverEntryED2Ev.exit
  %20 = atomicrmw sub ptr %18, i32 1 seq_cst, align 4
  %.not2.i.i2 = icmp eq i32 %20, 1
  br i1 %.not2.i.i2, label %21, label %_ZN4QMapI7QStringP19LBMLBTRMSourceEntryED2Ev.exit

21:                                               ; preds = %19
  %22 = load ptr, ptr %17, align 8
  %23 = icmp eq ptr %22, null
  br i1 %23, label %_ZN4QMapI7QStringP19LBMLBTRMSourceEntryED2Ev.exit, label %24

24:                                               ; preds = %21
  %25 = getelementptr inbounds i8, ptr %22, i64 8
  %26 = getelementptr inbounds i8, ptr %22, i64 24
  %27 = load ptr, ptr %26, align 8
  invoke void @_ZNSt8_Rb_treeI7QStringSt4pairIKS0_P19LBMLBTRMSourceEntryESt10_Select1stIS5_ESt4lessIS0_ESaIS5_EE8_M_eraseEPSt13_Rb_tree_nodeIS5_E(ptr noundef nonnull align 8 dereferenceable(48) %25, ptr noundef %27)
          to label %_ZN8QMapDataISt3mapI7QStringP19LBMLBTRMSourceEntrySt4lessIS1_ESaISt4pairIKS1_S3_EEEED2Ev.exit.i.i unwind label %28

28:                                               ; preds = %24
  %29 = landingpad { ptr, i32 }
          catch ptr null
  %30 = extractvalue { ptr, i32 } %29, 0
  tail call void @__clang_call_terminate(ptr %30) #18
  unreachable

_ZN8QMapDataISt3mapI7QStringP19LBMLBTRMSourceEntrySt4lessIS1_ESaISt4pairIKS1_S3_EEEED2Ev.exit.i.i: ; preds = %24
  tail call void @_ZdlPv(ptr noundef nonnull %22) #19
  br label %_ZN4QMapI7QStringP19LBMLBTRMSourceEntryED2Ev.exit

_ZN4QMapI7QStringP19LBMLBTRMSourceEntryED2Ev.exit: ; preds = %_ZN4QMapI7QStringP21LBMLBTRMReceiverEntryED2Ev.exit, %19, %21, %_ZN8QMapDataISt3mapI7QStringP19LBMLBTRMSourceEntrySt4lessIS1_ESaISt4pairIKS1_S3_EEEED2Ev.exit.i.i
  ret void

31:                                               ; preds = %1
  %32 = landingpad { ptr, i32 }
          catch ptr null
  %33 = extractvalue { ptr, i32 } %32, 0
  tail call void @__clang_call_terminate(ptr %33) #18
  unreachable
}